target datalayout = "e-m:e-p270:32:32-p271:32:32-p272:64:64-i64:64-i128:128-f80:128-n8:16:32:64-S128"
target triple = "x86_64-pc-linux-gnu"

%"struct.gmx::DensityFittingParameters" = type { i8, %"class.std::vector", i32, i32, float, float, float, i64, i8, i8, float, %"class.std::__cxx11::basic_string", %"class.std::__cxx11::basic_string" }
%"class.std::vector" = type { %"struct.std::_Vector_base" }
%"struct.std::_Vector_base" = type { %"struct.std::_Vector_base<long, std::allocator<long>>::_Vector_impl" }
%"struct.std::_Vector_base<long, std::allocator<long>>::_Vector_impl" = type { %"struct.std::_Vector_base<long, std::allocator<long>>::_Vector_impl_data" }
%"struct.std::_Vector_base<long, std::allocator<long>>::_Vector_impl_data" = type { ptr, ptr, ptr }
%"class.std::__cxx11::basic_string" = type { %"struct.std::__cxx11::basic_string<char>::_Alloc_hider", i64, %union.anon }
%"struct.std::__cxx11::basic_string<char>::_Alloc_hider" = type { ptr }
%union.anon = type { i64, [8 x i8] }
%"class.__gnu_cxx::__normal_iterator" = type { ptr }

; Function Attrs: mustprogress nounwind uwtable
define linkonce_odr noundef i32 @_ZSt8__memcmpIllEiPKT_PKT0_m(ptr noundef %0, ptr noundef %1, i64 noundef %2) #1 comdat {
  %4 = alloca ptr, align 8
  %5 = alloca ptr, align 8
  %6 = alloca i64, align 8
  store ptr %0, ptr %4, align 8
  store ptr %1, ptr %5, align 8
  store i64 %2, ptr %6, align 8
  %7 = load ptr, ptr %4, align 8
  %8 = load ptr, ptr %5, align 8
  %9 = load i64, ptr %6, align 8
  %10 = mul i64 8, %9
  %11 = call i32 @memcmp(ptr noundef %7, ptr noundef %8, i64 noundef %10) #4
  ret i32 %11
}

; Function Attrs: mustprogress uwtable
define linkonce_odr noundef zeroext i1 @_ZNSt7__equalILb1EE5equalIlEEbPKT_S4_S4_(ptr noundef %0, ptr noundef %1, ptr noundef %2) #0 comdat align 2 {
  %4 = alloca i1, align 1
  %5 = alloca ptr, align 8
  %6 = alloca ptr, align 8
  %7 = alloca ptr, align 8
  %8 = alloca i64, align 8
  store ptr %0, ptr %5, align 8
  store ptr %1, ptr %6, align 8
  store ptr %2, ptr %7, align 8
  %9 = load ptr, ptr %6, align 8
  %10 = load ptr, ptr %5, align 8
  %11 = ptrtoint ptr %9 to i64
  %12 = ptrtoint ptr %10 to i64
  %13 = sub i64 %11, %12
  %14 = sdiv exact i64 %13, 8
  store i64 %14, ptr %8, align 8
  %15 = load i64, ptr %8, align 8
  %16 = icmp ne i64 %15, 0
  br i1 %16, label %17, label %24

17:                                               ; preds = %3
  %18 = load ptr, ptr %5, align 8
  %19 = load ptr, ptr %7, align 8
  %20 = load i64, ptr %8, align 8
  %21 = call noundef i32 @_ZSt8__memcmpIllEiPKT_PKT0_m(ptr noundef %18, ptr noundef %19, i64 noundef %20)
  %22 = icmp ne i32 %21, 0
  %23 = xor i1 %22, true
  store i1 %23, ptr %4, align 1
  br label %25

24:                                               ; preds = %3
  store i1 true, ptr %4, align 1
  br label %25

25:                                               ; preds = %24, %17
  %26 = load i1, ptr %4, align 1
  ret i1 %26
}

; Function Attrs: mustprogress nounwind uwtable
define linkonce_odr noundef nonnull align 8 dereferenceable(8) ptr @_ZNK9__gnu_cxx17__normal_iteratorIPKlSt6vectorIlSaIlEEE4baseEv(ptr noundef nonnull align 8 dereferenceable(8) %0) #1 comdat align 2 {
  %2 = alloca ptr, align 8
  store ptr %0, ptr %2, align 8
  %3 = load ptr, ptr %2, align 8
  %4 = getelementptr inbounds %"class.__gnu_cxx::__normal_iterator", ptr %3, i32 0, i32 0
  ret ptr %4
}

; Function Attrs: mustprogress uwtable
define linkonce_odr noundef zeroext i1 @_ZSt12__equal_aux1IPKlS1_EbT_S2_T0_(ptr noundef %0, ptr noundef %1, ptr noundef %2) #0 comdat {
  %4 = alloca ptr, align 8
  %5 = alloca ptr, align 8
  %6 = alloca ptr, align 8
  %7 = alloca i8, align 1
  store ptr %0, ptr %4, align 8
  store ptr %1, ptr %5, align 8
  store ptr %2, ptr %6, align 8
  store i8 1, ptr %7, align 1
  %8 = load ptr, ptr %4, align 8
  %9 = load ptr, ptr %5, align 8
  %10 = load ptr, ptr %6, align 8
  %11 = call noundef zeroext i1 @_ZNSt7__equalILb1EE5equalIlEEbPKT_S4_S4_(ptr noundef %8, ptr noundef %9, ptr noundef %10)
  ret i1 %11
}

; Function Attrs: mustprogress nounwind uwtable
define linkonce_odr noundef ptr @_ZSt12__niter_baseIPKlSt6vectorIlSaIlEEET_N9__gnu_cxx17__normal_iteratorIS5_T0_EE(ptr %0) #1 comdat {
  %2 = alloca %"class.__gnu_cxx::__normal_iterator", align 8
  %3 = getelementptr inbounds %"class.__gnu_cxx::__normal_iterator", ptr %2, i32 0, i32 0
  store ptr %0, ptr %3, align 8
  %4 = call noundef nonnull align 8 dereferenceable(8) ptr @_ZNK9__gnu_cxx17__normal_iteratorIPKlSt6vectorIlSaIlEEE4baseEv(ptr noundef nonnull align 8 dereferenceable(8) %2) #4
  %5 = load ptr, ptr %4, align 8
  ret ptr %5
}

; Function Attrs: mustprogress uwtable
define linkonce_odr noundef zeroext i1 @_ZSt11__equal_auxIN9__gnu_cxx17__normal_iteratorIPKlSt6vectorIlSaIlEEEES7_EbT_S8_T0_(ptr %0, ptr %1, ptr %2) #0 comdat {
  %4 = alloca %"class.__gnu_cxx::__normal_iterator", align 8
  %5 = alloca %"class.__gnu_cxx::__normal_iterator", align 8
  %6 = alloca %"class.__gnu_cxx::__normal_iterator", align 8
  %7 = alloca %"class.__gnu_cxx::__normal_iterator", align 8
  %8 = alloca %"class.__gnu_cxx::__normal_iterator", align 8
  %9 = alloca %"class.__gnu_cxx::__normal_iterator", align 8
  %10 = getelementptr inbounds %"class.__gnu_cxx::__normal_iterator", ptr %4, i32 0, i32 0
  store ptr %0, ptr %10, align 8
  %11 = getelementptr inbounds %"class.__gnu_cxx::__normal_iterator", ptr %5, i32 0, i32 0
  store ptr %1, ptr %11, align 8
  %12 = getelementptr inbounds %"class.__gnu_cxx::__normal_iterator", ptr %6, i32 0, i32 0
  store ptr %2, ptr %12, align 8
  call void @llvm.memcpy.p0.p0.i64(ptr align 8 %7, ptr align 8 %4, i64 8, i1 false)
  %13 = getelementptr inbounds %"class.__gnu_cxx::__normal_iterator", ptr %7, i32 0, i32 0
  %14 = load ptr, ptr %13, align 8
  %15 = call noundef ptr @_ZSt12__niter_baseIPKlSt6vectorIlSaIlEEET_N9__gnu_cxx17__normal_iteratorIS5_T0_EE(ptr %14) #4
  call void @llvm.memcpy.p0.p0.i64(ptr align 8 %8, ptr align 8 %5, i64 8, i1 false)
  %16 = getelementptr inbounds %"class.__gnu_cxx::__normal_iterator", ptr %8, i32 0, i32 0
  %17 = load ptr, ptr %16, align 8
  %18 = call noundef ptr @_ZSt12__niter_baseIPKlSt6vectorIlSaIlEEET_N9__gnu_cxx17__normal_iteratorIS5_T0_EE(ptr %17) #4
  call void @llvm.memcpy.p0.p0.i64(ptr align 8 %9, ptr align 8 %6, i64 8, i1 false)
  %19 = getelementptr inbounds %"class.__gnu_cxx::__normal_iterator", ptr %9, i32 0, i32 0
  %20 = load ptr, ptr %19, align 8
  %21 = call noundef ptr @_ZSt12__niter_baseIPKlSt6vectorIlSaIlEEET_N9__gnu_cxx17__normal_iteratorIS5_T0_EE(ptr %20) #4
  %22 = call noundef zeroext i1 @_ZSt12__equal_aux1IPKlS1_EbT_S2_T0_(ptr noundef %15, ptr noundef %18, ptr noundef %21)
  ret i1 %22
}

; Function Attrs: mustprogress nounwind uwtable
define linkonce_odr void @_ZN9__gnu_cxx17__normal_iteratorIPKlSt6vectorIlSaIlEEEC2ERKS2_(ptr noundef nonnull align 8 dereferenceable(8) %0, ptr noundef nonnull align 8 dereferenceable(8) %1) unnamed_addr #1 comdat align 2 {
  %3 = alloca ptr, align 8
  %4 = alloca ptr, align 8
  store ptr %0, ptr %3, align 8
  store ptr %1, ptr %4, align 8
  %5 = load ptr, ptr %3, align 8
  %6 = getelementptr inbounds %"class.__gnu_cxx::__normal_iterator", ptr %5, i32 0, i32 0
  %7 = load ptr, ptr %4, align 8
  %8 = load ptr, ptr %7, align 8
  store ptr %8, ptr %6, align 8
  ret void
}

; Function Attrs: mustprogress uwtable
define linkonce_odr noundef zeroext i1 @_ZSt5equalIN9__gnu_cxx17__normal_iteratorIPKlSt6vectorIlSaIlEEEES7_EbT_S8_T0_(ptr %0, ptr %1, ptr %2) #0 comdat {
  %4 = alloca %"class.__gnu_cxx::__normal_iterator", align 8
  %5 = alloca %"class.__gnu_cxx::__normal_iterator", align 8
  %6 = alloca %"class.__gnu_cxx::__normal_iterator", align 8
  %7 = alloca %"class.__gnu_cxx::__normal_iterator", align 8
  %8 = alloca %"class.__gnu_cxx::__normal_iterator", align 8
  %9 = alloca %"class.__gnu_cxx::__normal_iterator", align 8
  %10 = getelementptr inbounds %"class.__gnu_cxx::__normal_iterator", ptr %4, i32 0, i32 0
  store ptr %0, ptr %10, align 8
  %11 = getelementptr inbounds %"class.__gnu_cxx::__normal_iterator", ptr %5, i32 0, i32 0
  store ptr %1, ptr %11, align 8
  %12 = getelementptr inbounds %"class.__gnu_cxx::__normal_iterator", ptr %6, i32 0, i32 0
  store ptr %2, ptr %12, align 8
  call void @llvm.memcpy.p0.p0.i64(ptr align 8 %7, ptr align 8 %4, i64 8, i1 false)
  call void @llvm.memcpy.p0.p0.i64(ptr align 8 %8, ptr align 8 %5, i64 8, i1 false)
  call void @llvm.memcpy.p0.p0.i64(ptr align 8 %9, ptr align 8 %6, i64 8, i1 false)
  %13 = getelementptr inbounds %"class.__gnu_cxx::__normal_iterator", ptr %7, i32 0, i32 0
  %14 = load ptr, ptr %13, align 8
  %15 = getelementptr inbounds %"class.__gnu_cxx::__normal_iterator", ptr %8, i32 0, i32 0
  %16 = load ptr, ptr %15, align 8
  %17 = getelementptr inbounds %"class.__gnu_cxx::__normal_iterator", ptr %9, i32 0, i32 0
  %18 = load ptr, ptr %17, align 8
  %19 = call noundef zeroext i1 @_ZSt11__equal_auxIN9__gnu_cxx17__normal_iteratorIPKlSt6vectorIlSaIlEEEES7_EbT_S8_T0_(ptr %14, ptr %16, ptr %18)
  ret i1 %19
}

; Function Attrs: mustprogress nounwind uwtable
define linkonce_odr ptr @_ZNKSt6vectorIlSaIlEE3endEv(ptr noundef nonnull align 8 dereferenceable(24) %0) #1 comdat align 2 {
  %2 = alloca %"class.__gnu_cxx::__normal_iterator", align 8
  %3 = alloca ptr, align 8
  store ptr %0, ptr %3, align 8
  %4 = load ptr, ptr %3, align 8
  %5 = getelementptr inbounds %"struct.std::_Vector_base", ptr %4, i32 0, i32 0
  %6 = getelementptr inbounds %"struct.std::_Vector_base<long, std::allocator<long>>::_Vector_impl_data", ptr %5, i32 0, i32 1
  call void @_ZN9__gnu_cxx17__normal_iteratorIPKlSt6vectorIlSaIlEEEC2ERKS2_(ptr noundef nonnull align 8 dereferenceable(8) %2, ptr noundef nonnull align 8 dereferenceable(8) %6) #4
  %7 = getelementptr inbounds %"class.__gnu_cxx::__normal_iterator", ptr %2, i32 0, i32 0
  %8 = load ptr, ptr %7, align 8
  ret ptr %8
}

; Function Attrs: mustprogress nounwind uwtable
define linkonce_odr ptr @_ZNKSt6vectorIlSaIlEE5beginEv(ptr noundef nonnull align 8 dereferenceable(24) %0) #1 comdat align 2 {
  %2 = alloca %"class.__gnu_cxx::__normal_iterator", align 8
  %3 = alloca ptr, align 8
  store ptr %0, ptr %3, align 8
  %4 = load ptr, ptr %3, align 8
  %5 = getelementptr inbounds %"struct.std::_Vector_base", ptr %4, i32 0, i32 0
  %6 = getelementptr inbounds %"struct.std::_Vector_base<long, std::allocator<long>>::_Vector_impl_data", ptr %5, i32 0, i32 0
  call void @_ZN9__gnu_cxx17__normal_iteratorIPKlSt6vectorIlSaIlEEEC2ERKS2_(ptr noundef nonnull align 8 dereferenceable(8) %2, ptr noundef nonnull align 8 dereferenceable(8) %6) #4
  %7 = getelementptr inbounds %"class.__gnu_cxx::__normal_iterator", ptr %2, i32 0, i32 0
  %8 = load ptr, ptr %7, align 8
  ret ptr %8
}

; Function Attrs: mustprogress nounwind uwtable
define linkonce_odr noundef i64 @_ZNKSt6vectorIlSaIlEE4sizeEv(ptr noundef nonnull align 8 dereferenceable(24) %0) #1 comdat align 2 {
  %2 = alloca ptr, align 8
  store ptr %0, ptr %2, align 8
  %3 = load ptr, ptr %2, align 8
  %4 = getelementptr inbounds %"struct.std::_Vector_base", ptr %3, i32 0, i32 0
  %5 = getelementptr inbounds %"struct.std::_Vector_base<long, std::allocator<long>>::_Vector_impl_data", ptr %4, i32 0, i32 1
  %6 = load ptr, ptr %5, align 8
  %7 = getelementptr inbounds %"struct.std::_Vector_base", ptr %3, i32 0, i32 0
  %8 = getelementptr inbounds %"struct.std::_Vector_base<long, std::allocator<long>>::_Vector_impl_data", ptr %7, i32 0, i32 0
  %9 = load ptr, ptr %8, align 8
  %10 = ptrtoint ptr %6 to i64
  %11 = ptrtoint ptr %9 to i64
  %12 = sub i64 %10, %11
  %13 = sdiv exact i64 %12, 8
  ret i64 %13
}

; Function Attrs: mustprogress uwtable
define linkonce_odr noundef zeroext i1 @_ZSteqIlSaIlEEbRKSt6vectorIT_T0_ES6_(ptr noundef nonnull align 8 dereferenceable(24) %0, ptr noundef nonnull align 8 dereferenceable(24) %1) #0 comdat {
  %3 = alloca ptr, align 8
  %4 = alloca ptr, align 8
  %5 = alloca %"class.__gnu_cxx::__normal_iterator", align 8
  %6 = alloca %"class.__gnu_cxx::__normal_iterator", align 8
  %7 = alloca %"class.__gnu_cxx::__normal_iterator", align 8
  store ptr %0, ptr %3, align 8
  store ptr %1, ptr %4, align 8
  %8 = load ptr, ptr %3, align 8
  %9 = call noundef i64 @_ZNKSt6vectorIlSaIlEE4sizeEv(ptr noundef nonnull align 8 dereferenceable(24) %8) #4
  %10 = load ptr, ptr %4, align 8
  %11 = call noundef i64 @_ZNKSt6vectorIlSaIlEE4sizeEv(ptr noundef nonnull align 8 dereferenceable(24) %10) #4
  %12 = icmp eq i64 %9, %11
  br i1 %12, label %13, label %30

13:                                               ; preds = %2
  %14 = load ptr, ptr %3, align 8
  %15 = call ptr @_ZNKSt6vectorIlSaIlEE5beginEv(ptr noundef nonnull align 8 dereferenceable(24) %14) #4
  %16 = getelementptr inbounds %"class.__gnu_cxx::__normal_iterator", ptr %5, i32 0, i32 0
  store ptr %15, ptr %16, align 8
  %17 = load ptr, ptr %3, align 8
  %18 = call ptr @_ZNKSt6vectorIlSaIlEE3endEv(ptr noundef nonnull align 8 dereferenceable(24) %17) #4
  %19 = getelementptr inbounds %"class.__gnu_cxx::__normal_iterator", ptr %6, i32 0, i32 0
  store ptr %18, ptr %19, align 8
  %20 = load ptr, ptr %4, align 8
  %21 = call ptr @_ZNKSt6vectorIlSaIlEE5beginEv(ptr noundef nonnull align 8 dereferenceable(24) %20) #4
  %22 = getelementptr inbounds %"class.__gnu_cxx::__normal_iterator", ptr %7, i32 0, i32 0
  store ptr %21, ptr %22, align 8
  %23 = getelementptr inbounds %"class.__gnu_cxx::__normal_iterator", ptr %5, i32 0, i32 0
  %24 = load ptr, ptr %23, align 8
  %25 = getelementptr inbounds %"class.__gnu_cxx::__normal_iterator", ptr %6, i32 0, i32 0
  %26 = load ptr, ptr %25, align 8
  %27 = getelementptr inbounds %"class.__gnu_cxx::__normal_iterator", ptr %7, i32 0, i32 0
  %28 = load ptr, ptr %27, align 8
  %29 = call noundef zeroext i1 @_ZSt5equalIN9__gnu_cxx17__normal_iteratorIPKlSt6vectorIlSaIlEEEES7_EbT_S8_T0_(ptr %24, ptr %26, ptr %28)
  br label %30

30:                                               ; preds = %13, %2
  %31 = phi i1 [ false, %2 ], [ %29, %13 ]
  ret i1 %31
}

; Function Attrs: mustprogress uwtable
define linkonce_odr noundef zeroext i1 @_ZStneIlSaIlEEbRKSt6vectorIT_T0_ES6_(ptr noundef nonnull align 8 dereferenceable(24) %0, ptr noundef nonnull align 8 dereferenceable(24) %1) #0 comdat {
  %3 = alloca ptr, align 8
  %4 = alloca ptr, align 8
  store ptr %0, ptr %3, align 8
  store ptr %1, ptr %4, align 8
  %5 = load ptr, ptr %3, align 8
  %6 = load ptr, ptr %4, align 8
  %7 = call noundef zeroext i1 @_ZSteqIlSaIlEEbRKSt6vectorIT_T0_ES6_(ptr noundef nonnull align 8 dereferenceable(24) %5, ptr noundef nonnull align 8 dereferenceable(24) %6)
  %8 = xor i1 %7, true
  ret i1 %8
}

; Function Attrs: mustprogress uwtable
define noundef zeroext i1 @_ZN3gmxeqERKNS_24DensityFittingParametersES2_(ptr noundef nonnull align 8 dereferenceable(136) %0, ptr noundef nonnull align 8 dereferenceable(136) %1) #0 {
  %3 = alloca i1, align 1
  %4 = alloca ptr, align 8
  %5 = alloca ptr, align 8
  store ptr %0, ptr %4, align 8
  store ptr %1, ptr %5, align 8
  %6 = load ptr, ptr %4, align 8
  %7 = getelementptr inbounds %"struct.gmx::DensityFittingParameters", ptr %6, i32 0, i32 0
  %8 = load i8, ptr %7, align 8
  %9 = trunc i8 %8 to i1
  %10 = zext i1 %9 to i32
  %11 = load ptr, ptr %5, align 8
  %12 = getelementptr inbounds %"struct.gmx::DensityFittingParameters", ptr %11, i32 0, i32 0
  %13 = load i8, ptr %12, align 8
  %14 = trunc i8 %13 to i1
  %15 = zext i1 %14 to i32
  %16 = icmp ne i32 %10, %15
  br i1 %16, label %17, label %18

17:                                               ; preds = %2
  store i1 false, ptr %3, align 1
  br label %71

18:                                               ; preds = %2
  %19 = load ptr, ptr %4, align 8
  %20 = getelementptr inbounds %"struct.gmx::DensityFittingParameters", ptr %19, i32 0, i32 1
  %21 = load ptr, ptr %5, align 8
  %22 = getelementptr inbounds %"struct.gmx::DensityFittingParameters", ptr %21, i32 0, i32 1
  %23 = call noundef zeroext i1 @_ZStneIlSaIlEEbRKSt6vectorIT_T0_ES6_(ptr noundef nonnull align 8 dereferenceable(24) %20, ptr noundef nonnull align 8 dereferenceable(24) %22)
  br i1 %23, label %24, label %25

24:                                               ; preds = %18
  store i1 false, ptr %3, align 1
  br label %71

25:                                               ; preds = %18
  %26 = load ptr, ptr %4, align 8
  %27 = getelementptr inbounds %"struct.gmx::DensityFittingParameters", ptr %26, i32 0, i32 2
  %28 = load i32, ptr %27, align 8
  %29 = load ptr, ptr %5, align 8
  %30 = getelementptr inbounds %"struct.gmx::DensityFittingParameters", ptr %29, i32 0, i32 2
  %31 = load i32, ptr %30, align 8
  %32 = icmp ne i32 %28, %31
  br i1 %32, label %33, label %34

33:                                               ; preds = %25
  store i1 false, ptr %3, align 1
  br label %71

34:                                               ; preds = %25
  %35 = load ptr, ptr %4, align 8
  %36 = getelementptr inbounds %"struct.gmx::DensityFittingParameters", ptr %35, i32 0, i32 3
  %37 = load i32, ptr %36, align 4
  %38 = load ptr, ptr %5, align 8
  %39 = getelementptr inbounds %"struct.gmx::DensityFittingParameters", ptr %38, i32 0, i32 3
  %40 = load i32, ptr %39, align 4
  %41 = icmp ne i32 %37, %40
  br i1 %41, label %42, label %43

42:                                               ; preds = %34
  store i1 false, ptr %3, align 1
  br label %71

43:                                               ; preds = %34
  %44 = load ptr, ptr %4, align 8
  %45 = getelementptr inbounds %"struct.gmx::DensityFittingParameters", ptr %44, i32 0, i32 4
  %46 = load float, ptr %45, align 8
  %47 = load ptr, ptr %5, align 8
  %48 = getelementptr inbounds %"struct.gmx::DensityFittingParameters", ptr %47, i32 0, i32 4
  %49 = load float, ptr %48, align 8
  %50 = fcmp une float %46, %49
  br i1 %50, label %51, label %52

51:                                               ; preds = %43
  store i1 false, ptr %3, align 1
  br label %71

52:                                               ; preds = %43
  %53 = load ptr, ptr %4, align 8
  %54 = getelementptr inbounds %"struct.gmx::DensityFittingParameters", ptr %53, i32 0, i32 5
  %55 = load float, ptr %54, align 4
  %56 = load ptr, ptr %5, align 8
  %57 = getelementptr inbounds %"struct.gmx::DensityFittingParameters", ptr %56, i32 0, i32 5
  %58 = load float, ptr %57, align 4
  %59 = fcmp une float %55, %58
  br i1 %59, label %60, label %61

60:                                               ; preds = %52
  store i1 false, ptr %3, align 1
  br label %71

61:                                               ; preds = %52
  %62 = load ptr, ptr %4, align 8
  %63 = getelementptr inbounds %"struct.gmx::DensityFittingParameters", ptr %62, i32 0, i32 6
  %64 = load float, ptr %63, align 8
  %65 = load ptr, ptr %5, align 8
  %66 = getelementptr inbounds %"struct.gmx::DensityFittingParameters", ptr %65, i32 0, i32 6
  %67 = load float, ptr %66, align 8
  %68 = fcmp une float %64, %67
  br i1 %68, label %69, label %70

69:                                               ; preds = %61
  store i1 false, ptr %3, align 1
  br label %71

70:                                               ; preds = %61
  store i1 true, ptr %3, align 1
  br label %71

71:                                               ; preds = %70, %69, %60, %51, %42, %33, %24, %17
  %72 = load i1, ptr %3, align 1
  ret i1 %72
}

; Function Attrs: mustprogress uwtable
define noundef zeroext i1 @_ZN3gmxneERKNS_24DensityFittingParametersES2_(ptr noundef nonnull align 8 dereferenceable(136) %0, ptr noundef nonnull align 8 dereferenceable(136) %1) #0 {
  %3 = alloca ptr, align 8
  %4 = alloca ptr, align 8
  store ptr %0, ptr %3, align 8
  store ptr %1, ptr %4, align 8
  %5 = load ptr, ptr %3, align 8
  %6 = load ptr, ptr %4, align 8
  %7 = call noundef zeroext i1 @_ZN3gmxeqERKNS_24DensityFittingParametersES2_(ptr noundef nonnull align 8 dereferenceable(136) %5, ptr noundef nonnull align 8 dereferenceable(136) %6)
  %8 = xor i1 %7, true
  ret i1 %8
}